target datalayout = "e-m:e-p270:32:32-p271:32:32-p272:64:64-i64:64-i128:128-f80:128-n8:16:32:64-S128"
target triple = "x86_64-pc-linux-gnu"

%struct.Tuplestorestate = type { i32, i32, i8, i8, i8, i8, i64, i64, i64, i64, ptr, ptr, ptr, ptr, ptr, ptr, ptr, i32, i32, i32, i8, ptr, i32, i32, i32, i32, i64 }
%struct.MinimalTupleData = type { i32, [6 x i8], i16, i16, i8, [0 x i8] }

; Function Attrs: nounwind uwtable
define internal void @writetup_heap(ptr noundef %0, ptr noundef %1) #0 {
  %3 = alloca ptr, align 8
  %4 = alloca ptr, align 8
  %5 = alloca ptr, align 8
  %6 = alloca ptr, align 8
  %7 = alloca i32, align 4
  %8 = alloca i32, align 4
  store ptr %0, ptr %3, align 8
  store ptr %1, ptr %4, align 8
  call void @llvm.lifetime.start.p0(i64 8, ptr %5) #7
  %9 = load ptr, ptr %4, align 8
  store ptr %9, ptr %5, align 8
  call void @llvm.lifetime.start.p0(i64 8, ptr %6) #7
  %10 = load ptr, ptr %5, align 8
  %11 = getelementptr inbounds nuw i8, ptr %10, i64 10
  store ptr %11, ptr %6, align 8
  call void @llvm.lifetime.start.p0(i64 4, ptr %7) #7
  %12 = load ptr, ptr %5, align 8
  %13 = getelementptr inbounds nuw %struct.MinimalTupleData, ptr %12, i32 0, i32 0
  %14 = load i32, ptr %13, align 4
  %15 = zext i32 %14 to i64
  %16 = sub i64 %15, 10
  %17 = trunc i64 %16 to i32
  store i32 %17, ptr %7, align 4
  call void @llvm.lifetime.start.p0(i64 4, ptr %8) #7
  %18 = load i32, ptr %7, align 4
  %19 = zext i32 %18 to i64
  %20 = add i64 %19, 4
  %21 = trunc i64 %20 to i32
  store i32 %21, ptr %8, align 4
  %22 = load ptr, ptr %3, align 8
  %23 = getelementptr inbounds nuw %struct.Tuplestorestate, ptr %22, i32 0, i32 10
  %24 = load ptr, ptr %23, align 8
  call void @BufFileWrite(ptr noundef %24, ptr noundef %8, i64 noundef 4)
  %25 = load ptr, ptr %3, align 8
  %26 = getelementptr inbounds nuw %struct.Tuplestorestate, ptr %25, i32 0, i32 10
  %27 = load ptr, ptr %26, align 8
  %28 = load ptr, ptr %6, align 8
  %29 = load i32, ptr %7, align 4
  %30 = zext i32 %29 to i64
  call void @BufFileWrite(ptr noundef %27, ptr noundef %28, i64 noundef %30)
  %31 = load ptr, ptr %3, align 8
  %32 = getelementptr inbounds nuw %struct.Tuplestorestate, ptr %31, i32 0, i32 2
  %33 = load i8, ptr %32, align 8, !range !4, !noundef !5
  %34 = trunc i8 %33 to i1
  br i1 %34, label %35, label %39

35:                                               ; preds = %2
  %36 = load ptr, ptr %3, align 8
  %37 = getelementptr inbounds nuw %struct.Tuplestorestate, ptr %36, i32 0, i32 10
  %38 = load ptr, ptr %37, align 8
  call void @BufFileWrite(ptr noundef %38, ptr noundef %8, i64 noundef 4)
  br label %39

39:                                               ; preds = %35, %2
  %40 = load ptr, ptr %5, align 8
  %41 = call i64 @GetMemoryChunkSpace(ptr noundef %40)
  %42 = load ptr, ptr %3, align 8
  %43 = getelementptr inbounds nuw %struct.Tuplestorestate, ptr %42, i32 0, i32 7
  %44 = load i64, ptr %43, align 8
  %45 = add i64 %44, %41
  store i64 %45, ptr %43, align 8
  %46 = load ptr, ptr %5, align 8
  call void @heap_free_minimal_tuple(ptr noundef %46)
  call void @llvm.lifetime.end.p0(i64 4, ptr %8) #7
  call void @llvm.lifetime.end.p0(i64 4, ptr %7) #7
  call void @llvm.lifetime.end.p0(i64 8, ptr %6) #7
  call void @llvm.lifetime.end.p0(i64 8, ptr %5) #7
  ret void
}