; Function Attrs: nounwind uwtable
define internal void @writetup_heap(ptr noundef captures(none) %0, ptr noundef %1) #0 {
  %3 = alloca i32, align 4
  %4 = getelementptr inbounds nuw i8, ptr %1, i64 10
  %5 = load i32, ptr %1, align 4
  %6 = add i32 %5, -10
  call void @llvm.lifetime.start.p0(i64 4, ptr nonnull %3) #9
  %7 = zext i32 %6 to i64
  %8 = add i32 %5, -6
  store i32 %8, ptr %3, align 4
  %9 = getelementptr inbounds nuw i8, ptr %0, i64 48
  %10 = load ptr, ptr %9, align 8
  call void @BufFileWrite(ptr noundef %10, ptr noundef nonnull %3, i64 noundef 4) #9
  %11 = load ptr, ptr %9, align 8
  call void @BufFileWrite(ptr noundef %11, ptr noundef nonnull %4, i64 noundef %7) #9
  %12 = getelementptr inbounds nuw i8, ptr %0, i64 8
  %13 = load i8, ptr %12, align 8, !range !4, !noundef !5
  %14 = trunc nuw i8 %13 to i1
  br i1 %14, label %15, label %17

15:                                               ; preds = %2
  %16 = load ptr, ptr %9, align 8
  call void @BufFileWrite(ptr noundef %16, ptr noundef nonnull %3, i64 noundef 4) #9
  br label %17

17:                                               ; preds = %15, %2
  %18 = call i64 @GetMemoryChunkSpace(ptr noundef nonnull %1) #9
  %19 = getelementptr inbounds nuw i8, ptr %0, i64 24
  %20 = load i64, ptr %19, align 8
  %21 = add i64 %20, %18
  store i64 %21, ptr %19, align 8
  call void @heap_free_minimal_tuple(ptr noundef nonnull %1) #9
  call void @llvm.lifetime.end.p0(i64 4, ptr nonnull %3) #9
  ret void
}